target datalayout = "e-m:e-p270:32:32-p271:32:32-p272:64:64-i64:64-i128:128-f80:128-n8:16:32:64-S128"
target triple = "x86_64-pc-linux-gnu"

@.str = private unnamed_addr constant [6 x i8] c"pause\00", align 1
@.str.1 = private unnamed_addr constant [5 x i8] c"mark\00", align 1
@.str.2 = private unnamed_addr constant [7 x i8] c"remark\00", align 1
@.str.3 = private unnamed_addr constant [7 x i8] c"atomic\00", align 1
@.str.4 = private unnamed_addr constant [6 x i8] c"sweep\00", align 1

; Function Attrs: mustprogress nounwind uwtable
define hidden noundef ptr @_Z14luaC_statenamei(i32 noundef %0) #2 {
  %2 = alloca ptr, align 8
  %3 = alloca i32, align 4
  store i32 %0, ptr %3, align 4
  %4 = load i32, ptr %3, align 4
  switch i32 %4, label %10 [
    i32 0, label %5
    i32 1, label %6
    i32 2, label %7
    i32 3, label %8
    i32 4, label %9
  ]

5:                                                ; preds = %1
  store ptr @.str, ptr %2, align 8
  br label %11

6:                                                ; preds = %1
  store ptr @.str.1, ptr %2, align 8
  br label %11

7:                                                ; preds = %1
  store ptr @.str.2, ptr %2, align 8
  br label %11

8:                                                ; preds = %1
  store ptr @.str.3, ptr %2, align 8
  br label %11

9:                                                ; preds = %1
  store ptr @.str.4, ptr %2, align 8
  br label %11

10:                                               ; preds = %1
  store ptr null, ptr %2, align 8
  br label %11

11:                                               ; preds = %10, %9, %8, %7, %6, %5
  %12 = load ptr, ptr %2, align 8
  ret ptr %12
}